; Function Attrs: mustprogress nofree norecurse nosync nounwind memory(argmem: readwrite) uwtable
define void @_ZN7xgboost6common8CopyHistENS0_4SpanINS_6detail20GradientPairInternalIdEELm18446744073709551615EEES5_mm(i64 %0, ptr writeonly captures(none) %1, i64 %2, ptr readonly captures(none) %3, i64 noundef %4, i64 noundef %5) local_unnamed_addr #11 {
  %7 = shl i64 %4, 1
  %8 = shl i64 %5, 1
  %9 = icmp ult i64 %7, %8
  br i1 %9, label %.lr.ph, label %._crit_edge

._crit_edge:                                      ; preds = %.lr.ph, %6
  ret void

.lr.ph:                                           ; preds = %6, %.lr.ph
  %.09 = phi i64 [ %13, %.lr.ph ], [ %7, %6 ]
  %10 = getelementptr inbounds nuw double, ptr %3, i64 %.09
  %11 = load double, ptr %10, align 8, !tbaa !270
  %12 = getelementptr inbounds nuw double, ptr %1, i64 %.09
  store double %11, ptr %12, align 8, !tbaa !270
  %13 = add nuw i64 %.09, 1
  %exitcond.not = icmp eq i64 %13, %8
  br i1 %exitcond.not, label %._crit_edge, label %.lr.ph, !llvm.loop !272
}